target datalayout = "e-m:e-p270:32:32-p271:32:32-p272:64:64-i64:64-i128:128-f80:128-n8:16:32:64-S128"
target triple = "x86_64-pc-linux-gnu"

%class.mpfx_manager = type <{ i32, i32, i32, [4 x i8], %class.svector, i32, i8, [3 x i8], %class.id_gen, %class.svector, %class.svector, %class.svector, %class.svector, %class.mpfx, [4 x i8] }>
%class.id_gen = type { i32, %class.svector }
%class.svector = type { %class.vector }
%class.vector = type { ptr }
%class.mpfx = type { i32 }

@.str = private unnamed_addr constant [101 x i8] c"generated/home/dtcxzyw/WorkSpace/Projects/compilers/llvm-opt-benchmark/bench/z3/z3/src/util/mpfx.cpp\00", align 1
@.str.2 = private unnamed_addr constant [40 x i8] c"Failed to verify: ::inc(m_total_sz, w)\0A\00", align 1

; Function Attrs: mustprogress uwtable
define linkonce_odr hidden noundef nonnull align 8 dereferenceable(8) ptr @_ZN6vectorIjLb0EjE9push_backERKj(ptr noundef nonnull align 8 dereferenceable(8) %0, ptr noundef nonnull align 4 dereferenceable(4) %1) #4 comdat align 2 {
  %3 = alloca ptr, align 8
  %4 = alloca ptr, align 8
  store ptr %0, ptr %3, align 8, !tbaa !30
  store ptr %1, ptr %4, align 8, !tbaa !35
  %5 = load ptr, ptr %3, align 8
  %6 = getelementptr inbounds nuw %class.vector, ptr %5, i32 0, i32 0
  %7 = load ptr, ptr %6, align 8, !tbaa !34
  %8 = icmp eq ptr %7, null
  br i1 %8, label %19, label %9

9:                                                ; preds = %2
  %10 = getelementptr inbounds nuw %class.vector, ptr %5, i32 0, i32 0
  %11 = load ptr, ptr %10, align 8, !tbaa !34
  %12 = getelementptr inbounds i32, ptr %11, i64 -1
  %13 = load i32, ptr %12, align 4, !tbaa !8
  %14 = getelementptr inbounds nuw %class.vector, ptr %5, i32 0, i32 0
  %15 = load ptr, ptr %14, align 8, !tbaa !34
  %16 = getelementptr inbounds i32, ptr %15, i64 -2
  %17 = load i32, ptr %16, align 4, !tbaa !8
  %18 = icmp eq i32 %13, %17
  br i1 %18, label %19, label %20

19:                                               ; preds = %9, %2
  call void @_ZN6vectorIjLb0EjE13expand_vectorEv(ptr noundef nonnull align 8 dereferenceable(8) %5)
  br label %20

20:                                               ; preds = %19, %9
  %21 = getelementptr inbounds nuw %class.vector, ptr %5, i32 0, i32 0
  %22 = load ptr, ptr %21, align 8, !tbaa !34
  %23 = getelementptr inbounds nuw %class.vector, ptr %5, i32 0, i32 0
  %24 = load ptr, ptr %23, align 8, !tbaa !34
  %25 = getelementptr inbounds i32, ptr %24, i64 -1
  %26 = load i32, ptr %25, align 4, !tbaa !8
  %27 = zext i32 %26 to i64
  %28 = getelementptr inbounds nuw i32, ptr %22, i64 %27
  %29 = load ptr, ptr %4, align 8, !tbaa !35
  %30 = load i32, ptr %29, align 4, !tbaa !8
  store i32 %30, ptr %28, align 4, !tbaa !8
  %31 = getelementptr inbounds nuw %class.vector, ptr %5, i32 0, i32 0
  %32 = load ptr, ptr %31, align 8, !tbaa !34
  %33 = getelementptr inbounds i32, ptr %32, i64 -1
  %34 = load i32, ptr %33, align 4, !tbaa !8
  %35 = add i32 %34, 1
  store i32 %35, ptr %33, align 4, !tbaa !8
  ret ptr %5
}

; Function Attrs: mustprogress uwtable
define linkonce_odr hidden void @_ZN6id_gen7recycleEj(ptr noundef nonnull align 8 dereferenceable(16) %0, i32 noundef %1) #4 comdat align 2 {
  %3 = alloca ptr, align 8
  %4 = alloca i32, align 4
  store ptr %0, ptr %3, align 8, !tbaa !25
  store i32 %1, ptr %4, align 4, !tbaa !8
  %5 = load ptr, ptr %3, align 8
  %6 = call noundef zeroext i1 @_ZN6memory16is_out_of_memoryEv()
  br i1 %6, label %7, label %8

7:                                                ; preds = %2
  br label %11

8:                                                ; preds = %2
  %9 = getelementptr inbounds nuw %class.id_gen, ptr %5, i32 0, i32 1
  %10 = call noundef nonnull align 8 dereferenceable(8) ptr @_ZN6vectorIjLb0EjE9push_backERKj(ptr noundef nonnull align 8 dereferenceable(8) %9, ptr noundef nonnull align 4 dereferenceable(4) %4)
  br label %11

11:                                               ; preds = %8, %7
  ret void
}

; Function Attrs: mustprogress uwtable
define hidden void @_ZN12mpfx_manager3delER4mpfx(ptr noundef nonnull align 8 dereferenceable(85) %0, ptr noundef nonnull align 4 dereferenceable(4) %1) #4 align 2 {
  %3 = alloca ptr, align 8
  %4 = alloca ptr, align 8
  %5 = alloca i32, align 4
  %6 = alloca ptr, align 8
  %7 = alloca i32, align 4
  store ptr %0, ptr %3, align 8, !tbaa !3
  store ptr %1, ptr %4, align 8, !tbaa !28
  %8 = load ptr, ptr %3, align 8
  call void @llvm.lifetime.start.p0(i64 4, ptr %5) #3
  %9 = load ptr, ptr %4, align 8, !tbaa !28
  %10 = load i32, ptr %9, align 4
  %11 = lshr i32 %10, 1
  store i32 %11, ptr %5, align 4, !tbaa !8
  %12 = load i32, ptr %5, align 4, !tbaa !8
  %13 = icmp ne i32 %12, 0
  br i1 %13, label %14, label %34

14:                                               ; preds = %2
  %15 = getelementptr inbounds nuw %class.mpfx_manager, ptr %8, i32 0, i32 8
  %16 = load i32, ptr %5, align 4, !tbaa !8
  call void @_ZN6id_gen7recycleEj(ptr noundef nonnull align 8 dereferenceable(16) %15, i32 noundef %16)
  call void @llvm.lifetime.start.p0(i64 8, ptr %6) #3
  %17 = load ptr, ptr %4, align 8, !tbaa !28
  %18 = call noundef ptr @_ZNK12mpfx_manager5wordsERK4mpfx(ptr noundef nonnull align 8 dereferenceable(85) %8, ptr noundef nonnull align 4 dereferenceable(4) %17)
  store ptr %18, ptr %6, align 8, !tbaa !35
  call void @llvm.lifetime.start.p0(i64 4, ptr %7) #3
  store i32 0, ptr %7, align 4, !tbaa !8
  br label %19

19:                                               ; preds = %30, %14
  %20 = load i32, ptr %7, align 4, !tbaa !8
  %21 = getelementptr inbounds nuw %class.mpfx_manager, ptr %8, i32 0, i32 2
  %22 = load i32, ptr %21, align 8, !tbaa !20
  %23 = icmp ult i32 %20, %22
  br i1 %23, label %25, label %24

24:                                               ; preds = %19
  call void @llvm.lifetime.end.p0(i64 4, ptr %7) #3
  br label %33

25:                                               ; preds = %19
  %26 = load ptr, ptr %6, align 8, !tbaa !35
  %27 = load i32, ptr %7, align 4, !tbaa !8
  %28 = zext i32 %27 to i64
  %29 = getelementptr inbounds nuw i32, ptr %26, i64 %28
  store i32 0, ptr %29, align 4, !tbaa !8
  br label %30

30:                                               ; preds = %25
  %31 = load i32, ptr %7, align 4, !tbaa !8
  %32 = add i32 %31, 1
  store i32 %32, ptr %7, align 4, !tbaa !8
  br label %19, !llvm.loop !37

33:                                               ; preds = %24
  call void @llvm.lifetime.end.p0(i64 8, ptr %6) #3
  br label %34

34:                                               ; preds = %33, %2
  call void @llvm.lifetime.end.p0(i64 4, ptr %5) #3
  ret void
}

; Function Attrs: mustprogress nounwind uwtable
define linkonce_odr hidden noundef ptr @_ZNK6vectorIjLb0EjE4dataEv(ptr noundef nonnull align 8 dereferenceable(8) %0) #5 comdat align 2 {
  %2 = alloca ptr, align 8
  store ptr %0, ptr %2, align 8, !tbaa !30
  %3 = load ptr, ptr %2, align 8
  %4 = getelementptr inbounds nuw %class.vector, ptr %3, i32 0, i32 0
  %5 = load ptr, ptr %4, align 8, !tbaa !34
  ret ptr %5
}

; Function Attrs: mustprogress uwtable
define hidden void @_ZN12mpfx_manager5resetER4mpfx(ptr noundef nonnull align 8 dereferenceable(85) %0, ptr noundef nonnull align 4 dereferenceable(4) %1) #4 align 2 {
  %3 = alloca ptr, align 8
  %4 = alloca ptr, align 8
  store ptr %0, ptr %3, align 8, !tbaa !3
  store ptr %1, ptr %4, align 8, !tbaa !28
  %5 = load ptr, ptr %3, align 8
  %6 = load ptr, ptr %4, align 8, !tbaa !28
  call void @_ZN12mpfx_manager3delER4mpfx(ptr noundef nonnull align 8 dereferenceable(85) %5, ptr noundef nonnull align 4 dereferenceable(4) %6)
  %7 = load ptr, ptr %4, align 8, !tbaa !28
  %8 = load i32, ptr %7, align 4
  %9 = and i32 %8, -2
  %10 = or i32 %9, 0
  store i32 %10, ptr %7, align 4
  %11 = load ptr, ptr %4, align 8, !tbaa !28
  %12 = load i32, ptr %11, align 4
  %13 = and i32 %12, 1
  %14 = or i32 %13, 0
  store i32 %14, ptr %11, align 4
  ret void
}

; Function Attrs: mustprogress uwtable
define linkonce_odr hidden noundef ptr @_ZNK12mpfx_manager5wordsERK4mpfx(ptr noundef nonnull align 8 dereferenceable(85) %0, ptr noundef nonnull align 4 dereferenceable(4) %1) #4 comdat align 2 {
  %3 = alloca ptr, align 8
  %4 = alloca ptr, align 8
  store ptr %0, ptr %3, align 8, !tbaa !3
  store ptr %1, ptr %4, align 8, !tbaa !28
  %5 = load ptr, ptr %3, align 8
  %6 = getelementptr inbounds nuw %class.mpfx_manager, ptr %5, i32 0, i32 4
  %7 = call noundef ptr @_ZNK6vectorIjLb0EjE4dataEv(ptr noundef nonnull align 8 dereferenceable(8) %6)
  %8 = load ptr, ptr %4, align 8, !tbaa !28
  %9 = load i32, ptr %8, align 4
  %10 = lshr i32 %9, 1
  %11 = getelementptr inbounds nuw %class.mpfx_manager, ptr %5, i32 0, i32 2
  %12 = load i32, ptr %11, align 8, !tbaa !20
  %13 = mul i32 %10, %12
  %14 = zext i32 %13 to i64
  %15 = getelementptr inbounds nuw i32, ptr %7, i64 %14
  ret ptr %15
}

; Function Attrs: mustprogress nounwind uwtable
define linkonce_odr hidden noundef zeroext i1 @_ZN12mpfx_manager7is_zeroERK4mpfx(ptr noundef nonnull align 4 dereferenceable(4) %0) #5 comdat align 2 {
  %2 = alloca ptr, align 8
  store ptr %0, ptr %2, align 8, !tbaa !28
  %3 = load ptr, ptr %2, align 8, !tbaa !28
  %4 = load i32, ptr %3, align 4
  %5 = lshr i32 %4, 1
  %6 = icmp eq i32 %5, 0
  ret i1 %6
}

; Function Attrs: mustprogress uwtable
define hidden void @_ZN12mpfx_manager5div2kER4mpfxj(ptr noundef nonnull align 8 dereferenceable(85) %0, ptr noundef nonnull align 4 dereferenceable(4) %1, i32 noundef %2) #4 align 2 {
  %4 = alloca ptr, align 8
  %5 = alloca ptr, align 8
  %6 = alloca i32, align 4
  %7 = alloca ptr, align 8
  %8 = alloca i8, align 1
  store ptr %0, ptr %4, align 8, !tbaa !3
  store ptr %1, ptr %5, align 8, !tbaa !28
  store i32 %2, ptr %6, align 4, !tbaa !8
  %9 = load ptr, ptr %4, align 8
  %10 = load ptr, ptr %5, align 8, !tbaa !28
  %11 = call noundef zeroext i1 @_ZN12mpfx_manager7is_zeroERK4mpfx(ptr noundef nonnull align 4 dereferenceable(4) %10)
  br i1 %11, label %62, label %12

12:                                               ; preds = %3
  %13 = load i32, ptr %6, align 4, !tbaa !8
  %14 = icmp ugt i32 %13, 0
  br i1 %14, label %15, label %62

15:                                               ; preds = %12
  call void @llvm.lifetime.start.p0(i64 8, ptr %7) #3
  %16 = load ptr, ptr %5, align 8, !tbaa !28
  %17 = call noundef ptr @_ZNK12mpfx_manager5wordsERK4mpfx(ptr noundef nonnull align 8 dereferenceable(85) %9, ptr noundef nonnull align 4 dereferenceable(4) %16)
  store ptr %17, ptr %7, align 8, !tbaa !35
  call void @llvm.lifetime.start.p0(i64 1, ptr %8) #3
  %18 = load ptr, ptr %5, align 8, !tbaa !28
  %19 = load i32, ptr %18, align 4
  %20 = and i32 %19, 1
  %21 = icmp eq i32 %20, 1
  %22 = zext i1 %21 to i32
  %23 = getelementptr inbounds nuw %class.mpfx_manager, ptr %9, i32 0, i32 6
  %24 = load i8, ptr %23, align 4, !tbaa !22, !range !57, !noundef !58
  %25 = trunc i8 %24 to i1
  %26 = zext i1 %25 to i32
  %27 = icmp ne i32 %22, %26
  br i1 %27, label %28, label %34

28:                                               ; preds = %15
  %29 = getelementptr inbounds nuw %class.mpfx_manager, ptr %9, i32 0, i32 2
  %30 = load i32, ptr %29, align 8, !tbaa !20
  %31 = load ptr, ptr %7, align 8, !tbaa !35
  %32 = load i32, ptr %6, align 4, !tbaa !8
  %33 = call noundef zeroext i1 @_Z23has_one_at_first_k_bitsjPKjj(i32 noundef %30, ptr noundef %31, i32 noundef %32)
  br label %34

34:                                               ; preds = %28, %15
  %35 = phi i1 [ false, %15 ], [ %33, %28 ]
  %36 = zext i1 %35 to i8
  store i8 %36, ptr %8, align 1, !tbaa !60
  %37 = getelementptr inbounds nuw %class.mpfx_manager, ptr %9, i32 0, i32 2
  %38 = load i32, ptr %37, align 8, !tbaa !20
  %39 = load ptr, ptr %7, align 8, !tbaa !35
  %40 = load i32, ptr %6, align 4, !tbaa !8
  %41 = getelementptr inbounds nuw %class.mpfx_manager, ptr %9, i32 0, i32 2
  %42 = load i32, ptr %41, align 8, !tbaa !20
  %43 = load ptr, ptr %7, align 8, !tbaa !35
  call void @_Z3shrjPKjjjPj(i32 noundef %38, ptr noundef %39, i32 noundef %40, i32 noundef %42, ptr noundef %43)
  %44 = load i8, ptr %8, align 1, !tbaa !60, !range !57, !noundef !58
  %45 = trunc i8 %44 to i1
  br i1 %45, label %46, label %53

46:                                               ; preds = %34
  %47 = getelementptr inbounds nuw %class.mpfx_manager, ptr %9, i32 0, i32 2
  %48 = load i32, ptr %47, align 8, !tbaa !20
  %49 = load ptr, ptr %7, align 8, !tbaa !35
  %50 = call noundef zeroext i1 @_Z3incjPj(i32 noundef %48, ptr noundef %49)
  br i1 %50, label %52, label %51

51:                                               ; preds = %46
  call void @_Z26notify_assertion_violationPKciS0_(ptr noundef @.str, i32 noundef 533, ptr noundef @.str.2)
  call void @_Z18invoke_exit_actionj(i32 noundef 114)
  br label %52

52:                                               ; preds = %51, %46
  br label %61

53:                                               ; preds = %34
  %54 = getelementptr inbounds nuw %class.mpfx_manager, ptr %9, i32 0, i32 2
  %55 = load i32, ptr %54, align 8, !tbaa !20
  %56 = load ptr, ptr %7, align 8, !tbaa !35
  %57 = call noundef zeroext i1 @_Z7is_zerojPKj(i32 noundef %55, ptr noundef %56)
  br i1 %57, label %58, label %60

58:                                               ; preds = %53
  %59 = load ptr, ptr %5, align 8, !tbaa !28
  call void @_ZN12mpfx_manager5resetER4mpfx(ptr noundef nonnull align 8 dereferenceable(85) %9, ptr noundef nonnull align 4 dereferenceable(4) %59)
  br label %60

60:                                               ; preds = %58, %53
  br label %61

61:                                               ; preds = %60, %52
  call void @llvm.lifetime.end.p0(i64 1, ptr %8) #3
  call void @llvm.lifetime.end.p0(i64 8, ptr %7) #3
  br label %62

62:                                               ; preds = %61, %12, %3
  ret void
}