; Function Attrs: mustprogress uwtable
define hidden void @_ZN12mpfx_manager5div2kER4mpfxj(ptr noundef nonnull align 8 dereferenceable(85) %0, ptr noundef nonnull align 4 captures(none) dereferenceable(4) %1, i32 noundef %2) local_unnamed_addr #3 align 2 {
  %4 = load i32, ptr %1, align 4
  %5 = icmp ult i32 %4, 2
  %6 = icmp eq i32 %2, 0
  %or.cond.not = or i1 %6, %5
  br i1 %or.cond.not, label %63, label %7

7:                                                ; preds = %3
  %8 = getelementptr inbounds nuw i8, ptr %0, i64 16
  %9 = load ptr, ptr %8, align 8, !tbaa !3
  %10 = lshr i32 %4, 1
  %11 = getelementptr inbounds nuw i8, ptr %0, i64 8
  %12 = load i32, ptr %11, align 8, !tbaa !19
  %13 = mul i32 %12, %10
  %14 = zext i32 %13 to i64
  %15 = getelementptr inbounds nuw i32, ptr %9, i64 %14
  %16 = and i32 %4, 1
  %17 = getelementptr inbounds nuw i8, ptr %0, i64 28
  %18 = load i8, ptr %17, align 4, !tbaa !21, !range !49, !noundef !50
  %19 = zext nneg i8 %18 to i32
  %.not = icmp eq i32 %16, %19
  br i1 %.not, label %.thread, label %20

.thread:                                          ; preds = %7
  tail call void @_Z3shrjPKjjjPj(i32 noundef %12, ptr noundef %15, i32 noundef %2, i32 noundef %12, ptr noundef %15)
  br label %27

20:                                               ; preds = %7
  %21 = tail call noundef zeroext i1 @_Z23has_one_at_first_k_bitsjPKjj(i32 noundef %12, ptr noundef %15, i32 noundef %2)
  %22 = load i32, ptr %11, align 8, !tbaa !19
  tail call void @_Z3shrjPKjjjPj(i32 noundef %22, ptr noundef %15, i32 noundef %2, i32 noundef %22, ptr noundef %15)
  br i1 %21, label %23, label %27

23:                                               ; preds = %20
  %24 = load i32, ptr %11, align 8, !tbaa !19
  %25 = tail call noundef zeroext i1 @_Z3incjPj(i32 noundef %24, ptr noundef %15)
  br i1 %25, label %63, label %26

26:                                               ; preds = %23
  tail call void @_Z26notify_assertion_violationPKciS0_(ptr noundef nonnull @.str, i32 noundef 533, ptr noundef nonnull @.str.2)
  tail call void @_Z18invoke_exit_actionj(i32 noundef 114)
  br label %63

27:                                               ; preds = %.thread, %20
  %28 = load i32, ptr %11, align 8, !tbaa !19
  %29 = tail call noundef zeroext i1 @_Z7is_zerojPKj(i32 noundef %28, ptr noundef %15)
  br i1 %29, label %30, label %63

30:                                               ; preds = %27
  %31 = load i32, ptr %1, align 4
  %.not.i.i = icmp ult i32 %31, 2
  br i1 %.not.i.i, label %_ZN12mpfx_manager5resetER4mpfx.exit, label %32

32:                                               ; preds = %30
  %33 = lshr i32 %31, 1
  %34 = tail call noundef zeroext i1 @_ZN6memory16is_out_of_memoryEv()
  br i1 %34, label %_ZN6id_gen7recycleEj.exit.i.i, label %35

35:                                               ; preds = %32
  %36 = getelementptr inbounds nuw i8, ptr %0, i64 40
  %37 = load ptr, ptr %36, align 8, !tbaa !3
  %38 = icmp eq ptr %37, null
  br i1 %38, label %45, label %39

39:                                               ; preds = %35
  %40 = getelementptr inbounds i8, ptr %37, i64 -4
  %41 = load i32, ptr %40, align 4, !tbaa !22
  %42 = getelementptr inbounds i8, ptr %37, i64 -8
  %43 = load i32, ptr %42, align 4, !tbaa !22
  %44 = icmp eq i32 %41, %43
  br i1 %44, label %45, label %_ZN6vectorIjLb0EjE9push_backERKj.exit.i.i.i

45:                                               ; preds = %39, %35
  tail call void @_ZN6vectorIjLb0EjE13expand_vectorEv(ptr noundef nonnull align 8 dereferenceable(8) %36)
  %.pre.i.i.i.i = load ptr, ptr %36, align 8, !tbaa !3
  %.phi.trans.insert.i.i.i.i = getelementptr inbounds i8, ptr %.pre.i.i.i.i, i64 -4
  %.pre2.i.i.i.i = load i32, ptr %.phi.trans.insert.i.i.i.i, align 4, !tbaa !22
  br label %_ZN6vectorIjLb0EjE9push_backERKj.exit.i.i.i

_ZN6vectorIjLb0EjE9push_backERKj.exit.i.i.i:      ; preds = %45, %39
  %46 = phi i32 [ %.pre2.i.i.i.i, %45 ], [ %41, %39 ]
  %47 = phi ptr [ %.pre.i.i.i.i, %45 ], [ %37, %39 ]
  %48 = getelementptr inbounds i8, ptr %47, i64 -4
  %49 = zext i32 %46 to i64
  %50 = getelementptr inbounds nuw i32, ptr %47, i64 %49
  store i32 %33, ptr %50, align 4, !tbaa !22
  %51 = add i32 %46, 1
  store i32 %51, ptr %48, align 4, !tbaa !22
  br label %_ZN6id_gen7recycleEj.exit.i.i

_ZN6id_gen7recycleEj.exit.i.i:                    ; preds = %_ZN6vectorIjLb0EjE9push_backERKj.exit.i.i.i, %32
  %52 = load ptr, ptr %8, align 8, !tbaa !3
  %53 = load i32, ptr %1, align 4
  %54 = lshr i32 %53, 1
  %55 = load i32, ptr %11, align 8, !tbaa !19
  %56 = mul i32 %54, %55
  %57 = zext i32 %56 to i64
  %58 = getelementptr inbounds nuw i32, ptr %52, i64 %57
  %.not10.i.i = icmp eq i32 %55, 0
  br i1 %.not10.i.i, label %_ZN12mpfx_manager5resetER4mpfx.exit, label %.lr.ph.i.i

.lr.ph.i.i:                                       ; preds = %_ZN6id_gen7recycleEj.exit.i.i, %.lr.ph.i.i
  %indvars.iv.i.i = phi i64 [ %indvars.iv.next.i.i, %.lr.ph.i.i ], [ 0, %_ZN6id_gen7recycleEj.exit.i.i ]
  %59 = getelementptr inbounds nuw i32, ptr %58, i64 %indvars.iv.i.i
  store i32 0, ptr %59, align 4, !tbaa !22
  %indvars.iv.next.i.i = add nuw nsw i64 %indvars.iv.i.i, 1
  %60 = load i32, ptr %11, align 8, !tbaa !19
  %61 = zext i32 %60 to i64
  %62 = icmp samesign ult i64 %indvars.iv.next.i.i, %61
  br i1 %62, label %.lr.ph.i.i, label %_ZN12mpfx_manager5resetER4mpfx.exit, !llvm.loop !26

_ZN12mpfx_manager5resetER4mpfx.exit:              ; preds = %.lr.ph.i.i, %30, %_ZN6id_gen7recycleEj.exit.i.i
  store i32 0, ptr %1, align 4
  br label %63

63:                                               ; preds = %26, %23, %_ZN12mpfx_manager5resetER4mpfx.exit, %27, %3
  ret void
}